target datalayout = "e-m:e-p270:32:32-p271:32:32-p272:64:64-i64:64-i128:128-f80:128-n8:16:32:64-S128"
target triple = "x86_64-pc-linux-gnu"

%struct.Fraig_ManStruct_t_ = type { ptr, ptr, ptr, ptr, ptr, ptr, ptr, ptr, ptr, i32, i32, i32, i32, i32, i32, i32, i32, i32, i32, i32, i32, i64, i32, i32, i32, i32, i32, ptr, ptr, ptr, ptr, ptr, i32, ptr, ptr, ptr, ptr, ptr, ptr, i32, ptr, ptr, ptr, ptr, i32, i32, i32, i32, i32, i32, i32, i32, i32, i32, i32, i32, i32, i32, i32, i32, i32, i32, i32, i64, i64, i64, i64, i64, i64, i64, i64, i64, i64, i64, i64 }
%struct.Fraig_NodeStruct_t_ = type { i32, i32, i32, i32, i32, i32, i32, ptr, ptr, ptr, ptr, ptr, ptr, ptr, ptr, i32, i32, ptr, ptr, ptr, ptr, ptr, ptr, ptr }

; Function Attrs: nounwind uwtable
define internal i32 @Abc_MaxInt(i32 noundef %0, i32 noundef %1) #0 {
  %3 = alloca i32, align 4
  %4 = alloca i32, align 4
  store i32 %0, ptr %3, align 4
  store i32 %1, ptr %4, align 4
  %5 = load i32, ptr %3, align 4
  %6 = load i32, ptr %4, align 4
  %7 = icmp sgt i32 %5, %6
  br i1 %7, label %8, label %10

8:                                                ; preds = %2
  %9 = load i32, ptr %3, align 4
  br label %12

10:                                               ; preds = %2
  %11 = load i32, ptr %4, align 4
  br label %12

12:                                               ; preds = %10, %8
  %13 = phi i32 [ %9, %8 ], [ %11, %10 ]
  ret i32 %13
}

; Function Attrs: nounwind uwtable
define i32 @Fraig_MappingUpdateLevel_rec(ptr noundef %0, ptr noundef %1, i32 noundef %2) #0 {
  %4 = alloca i32, align 4
  %5 = alloca ptr, align 8
  %6 = alloca ptr, align 8
  %7 = alloca i32, align 4
  %8 = alloca ptr, align 8
  %9 = alloca i32, align 4
  %10 = alloca i32, align 4
  %11 = alloca i32, align 4
  store ptr %0, ptr %5, align 8
  store ptr %1, ptr %6, align 8
  store i32 %2, ptr %7, align 4
  %12 = load ptr, ptr %6, align 8
  %13 = call i32 @Fraig_NodeIsAnd(ptr noundef %12)
  %14 = icmp ne i32 %13, 0
  br i1 %14, label %19, label %15

15:                                               ; preds = %3
  %16 = load ptr, ptr %6, align 8
  %17 = getelementptr inbounds %struct.Fraig_NodeStruct_t_, ptr %16, i32 0, i32 2
  %18 = load i32, ptr %17, align 8
  store i32 %18, ptr %4, align 4
  br label %124

19:                                               ; preds = %3
  %20 = load ptr, ptr %6, align 8
  %21 = getelementptr inbounds %struct.Fraig_NodeStruct_t_, ptr %20, i32 0, i32 4
  %22 = load i32, ptr %21, align 8
  %23 = load ptr, ptr %5, align 8
  %24 = getelementptr inbounds %struct.Fraig_ManStruct_t_, ptr %23, i32 0, i32 22
  %25 = load i32, ptr %24, align 8
  %26 = icmp eq i32 %22, %25
  br i1 %26, label %27, label %31

27:                                               ; preds = %19
  %28 = load ptr, ptr %6, align 8
  %29 = getelementptr inbounds %struct.Fraig_NodeStruct_t_, ptr %28, i32 0, i32 2
  %30 = load i32, ptr %29, align 8
  store i32 %30, ptr %4, align 4
  br label %124

31:                                               ; preds = %19
  %32 = load ptr, ptr %5, align 8
  %33 = getelementptr inbounds %struct.Fraig_ManStruct_t_, ptr %32, i32 0, i32 22
  %34 = load i32, ptr %33, align 8
  %35 = load ptr, ptr %6, align 8
  %36 = getelementptr inbounds %struct.Fraig_NodeStruct_t_, ptr %35, i32 0, i32 4
  store i32 %34, ptr %36, align 8
  %37 = load ptr, ptr %5, align 8
  %38 = load ptr, ptr %6, align 8
  %39 = getelementptr inbounds %struct.Fraig_NodeStruct_t_, ptr %38, i32 0, i32 7
  %40 = load ptr, ptr %39, align 8
  %41 = ptrtoint ptr %40 to i64
  %42 = and i64 %41, -2
  %43 = inttoptr i64 %42 to ptr
  %44 = load i32, ptr %7, align 4
  %45 = call i32 @Fraig_MappingUpdateLevel_rec(ptr noundef %37, ptr noundef %43, i32 noundef %44)
  store i32 %45, ptr %9, align 4
  %46 = load ptr, ptr %5, align 8
  %47 = load ptr, ptr %6, align 8
  %48 = getelementptr inbounds %struct.Fraig_NodeStruct_t_, ptr %47, i32 0, i32 8
  %49 = load ptr, ptr %48, align 8
  %50 = ptrtoint ptr %49 to i64
  %51 = and i64 %50, -2
  %52 = inttoptr i64 %51 to ptr
  %53 = load i32, ptr %7, align 4
  %54 = call i32 @Fraig_MappingUpdateLevel_rec(ptr noundef %46, ptr noundef %52, i32 noundef %53)
  store i32 %54, ptr %10, align 4
  %55 = load i32, ptr %9, align 4
  %56 = load i32, ptr %10, align 4
  %57 = call i32 @Abc_MaxInt(i32 noundef %55, i32 noundef %56)
  %58 = add nsw i32 1, %57
  %59 = load ptr, ptr %6, align 8
  %60 = getelementptr inbounds %struct.Fraig_NodeStruct_t_, ptr %59, i32 0, i32 2
  store i32 %58, ptr %60, align 8
  %61 = load ptr, ptr %6, align 8
  %62 = getelementptr inbounds %struct.Fraig_NodeStruct_t_, ptr %61, i32 0, i32 13
  %63 = load ptr, ptr %62, align 8
  %64 = icmp ne ptr %63, null
  br i1 %64, label %65, label %120

65:                                               ; preds = %31
  %66 = load ptr, ptr %5, align 8
  %67 = load ptr, ptr %6, align 8
  %68 = getelementptr inbounds %struct.Fraig_NodeStruct_t_, ptr %67, i32 0, i32 13
  %69 = load ptr, ptr %68, align 8
  %70 = load i32, ptr %7, align 4
  %71 = call i32 @Fraig_MappingUpdateLevel_rec(ptr noundef %66, ptr noundef %69, i32 noundef %70)
  store i32 %71, ptr %11, align 4
  %72 = load i32, ptr %7, align 4
  %73 = icmp ne i32 %72, 0
  br i1 %73, label %74, label %85

74:                                               ; preds = %65
  %75 = load ptr, ptr %6, align 8
  %76 = getelementptr inbounds %struct.Fraig_NodeStruct_t_, ptr %75, i32 0, i32 2
  %77 = load i32, ptr %76, align 8
  %78 = load i32, ptr %11, align 4
  %79 = icmp slt i32 %77, %78
  br i1 %79, label %80, label %84

80:                                               ; preds = %74
  %81 = load i32, ptr %11, align 4
  %82 = load ptr, ptr %6, align 8
  %83 = getelementptr inbounds %struct.Fraig_NodeStruct_t_, ptr %82, i32 0, i32 2
  store i32 %81, ptr %83, align 8
  br label %84

84:                                               ; preds = %80, %74
  br label %96

85:                                               ; preds = %65
  %86 = load ptr, ptr %6, align 8
  %87 = getelementptr inbounds %struct.Fraig_NodeStruct_t_, ptr %86, i32 0, i32 2
  %88 = load i32, ptr %87, align 8
  %89 = load i32, ptr %11, align 4
  %90 = icmp sgt i32 %88, %89
  br i1 %90, label %91, label %95

91:                                               ; preds = %85
  %92 = load i32, ptr %11, align 4
  %93 = load ptr, ptr %6, align 8
  %94 = getelementptr inbounds %struct.Fraig_NodeStruct_t_, ptr %93, i32 0, i32 2
  store i32 %92, ptr %94, align 8
  br label %95

95:                                               ; preds = %91, %85
  br label %96

96:                                               ; preds = %95, %84
  %97 = load ptr, ptr %6, align 8
  %98 = getelementptr inbounds %struct.Fraig_NodeStruct_t_, ptr %97, i32 0, i32 14
  %99 = load ptr, ptr %98, align 8
  %100 = icmp eq ptr %99, null
  br i1 %100, label %101, label %119

101:                                              ; preds = %96
  %102 = load ptr, ptr %6, align 8
  %103 = getelementptr inbounds %struct.Fraig_NodeStruct_t_, ptr %102, i32 0, i32 13
  %104 = load ptr, ptr %103, align 8
  store ptr %104, ptr %8, align 8
  br label %105

105:                                              ; preds = %114, %101
  %106 = load ptr, ptr %8, align 8
  %107 = icmp ne ptr %106, null
  br i1 %107, label %108, label %118

108:                                              ; preds = %105
  %109 = load ptr, ptr %6, align 8
  %110 = getelementptr inbounds %struct.Fraig_NodeStruct_t_, ptr %109, i32 0, i32 2
  %111 = load i32, ptr %110, align 8
  %112 = load ptr, ptr %8, align 8
  %113 = getelementptr inbounds %struct.Fraig_NodeStruct_t_, ptr %112, i32 0, i32 2
  store i32 %111, ptr %113, align 8
  br label %114

114:                                              ; preds = %108
  %115 = load ptr, ptr %8, align 8
  %116 = getelementptr inbounds %struct.Fraig_NodeStruct_t_, ptr %115, i32 0, i32 13
  %117 = load ptr, ptr %116, align 8
  store ptr %117, ptr %8, align 8
  br label %105, !llvm.loop !15

118:                                              ; preds = %105
  br label %119

119:                                              ; preds = %118, %96
  br label %120

120:                                              ; preds = %119, %31
  %121 = load ptr, ptr %6, align 8
  %122 = getelementptr inbounds %struct.Fraig_NodeStruct_t_, ptr %121, i32 0, i32 2
  %123 = load i32, ptr %122, align 8
  store i32 %123, ptr %4, align 4
  br label %124

124:                                              ; preds = %120, %27, %15
  %125 = load i32, ptr %4, align 4
  ret i32 %125
}