; Function Attrs: nounwind uwtable
define i32 @Fraig_MappingUpdateLevel_rec(ptr noundef %0, ptr noundef %1, i32 noundef %2) local_unnamed_addr #0 {
  %4 = tail call i32 @Fraig_NodeIsAnd(ptr noundef %1) #15
  %.not = icmp eq i32 %4, 0
  br i1 %.not, label %5, label %7

5:                                                ; preds = %3
  %6 = getelementptr inbounds nuw i8, ptr %1, i64 8
  br label %.loopexit

7:                                                ; preds = %3
  %8 = getelementptr inbounds nuw i8, ptr %1, i64 16
  %9 = load i32, ptr %8, align 8
  %10 = getelementptr inbounds nuw i8, ptr %0, i64 128
  %11 = load i32, ptr %10, align 8
  %12 = icmp eq i32 %9, %11
  br i1 %12, label %13, label %15

13:                                               ; preds = %7
  %14 = getelementptr inbounds nuw i8, ptr %1, i64 8
  br label %.loopexit

15:                                               ; preds = %7
  store i32 %11, ptr %8, align 8
  %16 = getelementptr inbounds nuw i8, ptr %1, i64 32
  %17 = load ptr, ptr %16, align 8
  %18 = ptrtoint ptr %17 to i64
  %19 = and i64 %18, -2
  %20 = inttoptr i64 %19 to ptr
  %21 = tail call i32 @Fraig_MappingUpdateLevel_rec(ptr noundef nonnull %0, ptr noundef %20, i32 noundef %2)
  %22 = getelementptr inbounds nuw i8, ptr %1, i64 40
  %23 = load ptr, ptr %22, align 8
  %24 = ptrtoint ptr %23 to i64
  %25 = and i64 %24, -2
  %26 = inttoptr i64 %25 to ptr
  %27 = tail call i32 @Fraig_MappingUpdateLevel_rec(ptr noundef nonnull %0, ptr noundef %26, i32 noundef %2)
  %28 = tail call noundef i32 @llvm.smax.i32(i32 %21, i32 %27)
  %29 = add nsw i32 %28, 1
  %30 = getelementptr inbounds nuw i8, ptr %1, i64 8
  store i32 %29, ptr %30, align 8
  %31 = getelementptr inbounds nuw i8, ptr %1, i64 80
  %32 = load ptr, ptr %31, align 8
  %.not40 = icmp eq ptr %32, null
  br i1 %.not40, label %.loopexit, label %33

33:                                               ; preds = %15
  %34 = tail call i32 @Fraig_MappingUpdateLevel_rec(ptr noundef nonnull %0, ptr noundef nonnull %32, i32 noundef %2)
  %.not41 = icmp eq i32 %2, 0
  %35 = load i32, ptr %30, align 8
  br i1 %.not41, label %38, label %36

36:                                               ; preds = %33
  %37 = icmp slt i32 %35, %34
  br i1 %37, label %.sink.split, label %40

38:                                               ; preds = %33
  %39 = icmp sgt i32 %35, %34
  br i1 %39, label %.sink.split, label %40

.sink.split:                                      ; preds = %38, %36
  store i32 %34, ptr %30, align 8
  br label %40

40:                                               ; preds = %.sink.split, %38, %36
  %41 = phi i32 [ %35, %38 ], [ %35, %36 ], [ %34, %.sink.split ]
  %42 = getelementptr inbounds nuw i8, ptr %1, i64 88
  %43 = load ptr, ptr %42, align 8
  %44 = icmp eq ptr %43, null
  br i1 %44, label %.preheader, label %.loopexit

.preheader:                                       ; preds = %40
  %.03643 = load ptr, ptr %31, align 8
  %.not4244 = icmp eq ptr %.03643, null
  br i1 %.not4244, label %.loopexit, label %.lr.ph

.lr.ph:                                           ; preds = %.preheader, %.lr.ph
  %.03645 = phi ptr [ %.036, %.lr.ph ], [ %.03643, %.preheader ]
  %45 = getelementptr inbounds nuw i8, ptr %.03645, i64 8
  store i32 %41, ptr %45, align 8
  %46 = getelementptr inbounds nuw i8, ptr %.03645, i64 80
  %.036 = load ptr, ptr %46, align 8
  %.not42 = icmp eq ptr %.036, null
  br i1 %.not42, label %.loopexit, label %.lr.ph, !llvm.loop !15

.loopexit:                                        ; preds = %.lr.ph, %.preheader, %15, %40, %13, %5
  %.0.in = phi ptr [ %14, %13 ], [ %6, %5 ], [ %30, %40 ], [ %30, %15 ], [ %30, %.preheader ], [ %30, %.lr.ph ]
  %.0 = load i32, ptr %.0.in, align 8
  ret i32 %.0
}